; Function Attrs: mustprogress uwtable
define dso_local noundef ptr @_ZN5cmELF9GetSONameEv(ptr nocapture noundef nonnull readonly align 8 dereferenceable(40) %0) local_unnamed_addr #0 align 2 {
  %2 = load ptr, ptr %0, align 8
  %.not.i = icmp eq ptr %2, null
  br i1 %.not.i, label %_ZNK5cmELF5ValidEv.exit.thread, label %_ZNK5cmELF5ValidEv.exit

_ZNK5cmELF5ValidEv.exit:                          ; preds = %1
  %3 = getelementptr inbounds i8, ptr %2, i64 28
  %4 = load i32, ptr %3, align 4
  %cond = icmp eq i32 %4, 3
  br i1 %cond, label %5, label %_ZNK5cmELF5ValidEv.exit.thread

5:                                                ; preds = %_ZNK5cmELF5ValidEv.exit
  %6 = load ptr, ptr %2, align 8
  %7 = getelementptr inbounds i8, ptr %6, i64 48
  %8 = load ptr, ptr %7, align 8
  %9 = tail call noundef ptr %8(ptr noundef nonnull align 8 dereferenceable(88) %2, i32 noundef 14)
  br label %_ZNK5cmELF5ValidEv.exit.thread

_ZNK5cmELF5ValidEv.exit.thread:                   ; preds = %_ZNK5cmELF5ValidEv.exit, %1, %5
  %.0 = phi ptr [ %9, %5 ], [ null, %1 ], [ null, %_ZNK5cmELF5ValidEv.exit ]
  ret ptr %.0
}